target datalayout = "e-m:e-p270:32:32-p271:32:32-p272:64:64-i64:64-i128:128-f80:128-n8:16:32:64-S128"
target triple = "x86_64-pc-linux-gnu"

%struct.dt_imageio_jpeg_error_mgr = type { %struct.jpeg_error_mgr, [1 x %struct.__jmp_buf_tag] }
%struct.jpeg_error_mgr = type { ptr, ptr, ptr, ptr, ptr, i32, %union.anon, i32, i64, ptr, i32, ptr, i32, i32 }
%union.anon = type { [8 x i32], [48 x i8] }
%struct.__jmp_buf_tag = type { [8 x i64], i32, %struct.__sigset_t }
%struct.__sigset_t = type { [16 x i64] }
%struct.dt_imageio_jpeg_t = type { i32, i32, %struct.jpeg_source_mgr, %struct.jpeg_destination_mgr, %struct.jpeg_decompress_struct, %struct.jpeg_compress_struct, ptr }
%struct.jpeg_source_mgr = type { ptr, i64, ptr, ptr, ptr, ptr, ptr }
%struct.jpeg_destination_mgr = type { ptr, i64, ptr, ptr, ptr }
%struct.jpeg_decompress_struct = type { ptr, ptr, ptr, ptr, i32, i32, ptr, i32, i32, i32, i32, i32, i32, i32, double, i32, i32, i32, i32, i32, i32, i32, i32, i32, i32, i32, i32, i32, i32, i32, i32, i32, i32, ptr, i32, i32, i32, i32, i32, ptr, [4 x ptr], [4 x ptr], [4 x ptr], i32, ptr, i32, i32, i32, [16 x i8], [16 x i8], [16 x i8], i32, i32, i8, i8, i8, i16, i16, i32, i8, i32, ptr, i32, i32, i32, i32, i32, ptr, i32, [4 x ptr], i32, i32, i32, [10 x i32], i32, i32, i32, i32, i32, ptr, i32, i32, ptr, ptr, ptr, ptr, ptr, ptr, ptr, ptr, ptr, ptr, ptr }
%struct.jpeg_compress_struct = type { ptr, ptr, ptr, ptr, i32, i32, ptr, i32, i32, i32, i32, double, i32, i32, i32, i32, i32, i32, i32, ptr, [4 x ptr], [4 x i32], [4 x ptr], [4 x ptr], [16 x i8], [16 x i8], [16 x i8], i32, ptr, i32, i32, i32, i32, i32, i32, i32, i32, i32, i32, i8, i8, i8, i16, i16, i32, i32, i32, i32, i32, i32, i32, i32, i32, [4 x ptr], i32, i32, i32, [10 x i32], i32, i32, i32, i32, i32, ptr, i32, ptr, ptr, ptr, ptr, ptr, ptr, ptr, ptr, ptr, ptr, i32 }

; Function Attrs: nounwind uwtable
define internal i32 @decompress_plain(ptr noundef %0, ptr noundef %1) #0 {
  %3 = alloca i32, align 4
  %4 = alloca ptr, align 8
  %5 = alloca ptr, align 8
  %6 = alloca [1 x ptr], align 8
  %7 = alloca i32, align 4
  %8 = alloca ptr, align 8
  %9 = alloca i32, align 4
  %10 = alloca i32, align 4
  store ptr %0, ptr %4, align 8, !tbaa !12
  store ptr %1, ptr %5, align 8, !tbaa !82
  call void @llvm.lifetime.start.p0(i64 8, ptr %6) #9
  %11 = load ptr, ptr %4, align 8, !tbaa !12
  %12 = getelementptr inbounds nuw %struct.dt_imageio_jpeg_t, ptr %11, i32 0, i32 4
  %13 = getelementptr inbounds nuw %struct.jpeg_decompress_struct, ptr %12, i32 0, i32 27
  %14 = load i32, ptr %13, align 8, !tbaa !85
  %15 = zext i32 %14 to i64
  %16 = load ptr, ptr %4, align 8, !tbaa !12
  %17 = getelementptr inbounds nuw %struct.dt_imageio_jpeg_t, ptr %16, i32 0, i32 4
  %18 = getelementptr inbounds nuw %struct.jpeg_decompress_struct, ptr %17, i32 0, i32 9
  %19 = load i32, ptr %18, align 8, !tbaa !86
  %20 = sext i32 %19 to i64
  %21 = mul i64 %15, %20
  %22 = call ptr @dt_alloc_aligned(i64 noundef %21)
  %23 = getelementptr inbounds [1 x ptr], ptr %6, i64 0, i64 0
  store ptr %22, ptr %23, align 8, !tbaa !82
  %24 = getelementptr inbounds [1 x ptr], ptr %6, i64 0, i64 0
  %25 = load ptr, ptr %24, align 8, !tbaa !82
  %26 = icmp ne ptr %25, null
  br i1 %26, label %28, label %27

27:                                               ; preds = %2
  store i32 1, ptr %3, align 4
  store i32 1, ptr %7, align 4
  br label %99

28:                                               ; preds = %2
  call void @llvm.lifetime.start.p0(i64 8, ptr %8) #9
  %29 = load ptr, ptr %5, align 8, !tbaa !82
  store ptr %29, ptr %8, align 8, !tbaa !82
  br label %30

30:                                               ; preds = %87, %28
  %31 = load ptr, ptr %4, align 8, !tbaa !12
  %32 = getelementptr inbounds nuw %struct.dt_imageio_jpeg_t, ptr %31, i32 0, i32 4
  %33 = getelementptr inbounds nuw %struct.jpeg_decompress_struct, ptr %32, i32 0, i32 34
  %34 = load i32, ptr %33, align 8, !tbaa !84
  %35 = load ptr, ptr %4, align 8, !tbaa !12
  %36 = getelementptr inbounds nuw %struct.dt_imageio_jpeg_t, ptr %35, i32 0, i32 4
  %37 = getelementptr inbounds nuw %struct.jpeg_decompress_struct, ptr %36, i32 0, i32 8
  %38 = load i32, ptr %37, align 4, !tbaa !68
  %39 = icmp ult i32 %34, %38
  br i1 %39, label %40, label %95

40:                                               ; preds = %30
  %41 = load ptr, ptr %4, align 8, !tbaa !12
  %42 = getelementptr inbounds nuw %struct.dt_imageio_jpeg_t, ptr %41, i32 0, i32 4
  %43 = getelementptr inbounds [1 x ptr], ptr %6, i64 0, i64 0
  %44 = call i32 @jpeg_read_scanlines(ptr noundef %42, ptr noundef %43, i32 noundef 1)
  %45 = icmp ne i32 %44, 1
  br i1 %45, label %46, label %49

46:                                               ; preds = %40
  %47 = getelementptr inbounds [1 x ptr], ptr %6, i64 0, i64 0
  %48 = load ptr, ptr %47, align 8, !tbaa !82
  call void @free(ptr noundef %48) #9
  store i32 1, ptr %3, align 4
  store i32 1, ptr %7, align 4
  br label %98

49:                                               ; preds = %40
  call void @llvm.lifetime.start.p0(i64 4, ptr %9) #9
  store i32 0, ptr %9, align 4, !tbaa !83
  br label %50

50:                                               ; preds = %84, %49
  %51 = load i32, ptr %9, align 4, !tbaa !83
  %52 = load ptr, ptr %4, align 8, !tbaa !12
  %53 = getelementptr inbounds nuw %struct.dt_imageio_jpeg_t, ptr %52, i32 0, i32 4
  %54 = getelementptr inbounds nuw %struct.jpeg_decompress_struct, ptr %53, i32 0, i32 7
  %55 = load i32, ptr %54, align 8, !tbaa !66
  %56 = icmp ult i32 %51, %55
  br i1 %56, label %58, label %57

57:                                               ; preds = %50
  store i32 4, ptr %7, align 4
  call void @llvm.lifetime.end.p0(i64 4, ptr %9) #9
  br label %87

58:                                               ; preds = %50
  call void @llvm.lifetime.start.p0(i64 4, ptr %10) #9
  store i32 0, ptr %10, align 4, !tbaa !83
  br label %59

59:                                               ; preds = %80, %58
  %60 = load i32, ptr %10, align 4, !tbaa !83
  %61 = icmp slt i32 %60, 3
  br i1 %61, label %63, label %62

62:                                               ; preds = %59
  store i32 7, ptr %7, align 4
  call void @llvm.lifetime.end.p0(i64 4, ptr %10) #9
  br label %83

63:                                               ; preds = %59
  %64 = getelementptr inbounds [1 x ptr], ptr %6, i64 0, i64 0
  %65 = load ptr, ptr %64, align 8, !tbaa !82
  %66 = load i32, ptr %9, align 4, !tbaa !83
  %67 = mul i32 3, %66
  %68 = load i32, ptr %10, align 4, !tbaa !83
  %69 = add i32 %67, %68
  %70 = zext i32 %69 to i64
  %71 = getelementptr inbounds nuw i8, ptr %65, i64 %70
  %72 = load i8, ptr %71, align 1, !tbaa !87
  %73 = load ptr, ptr %8, align 8, !tbaa !82
  %74 = load i32, ptr %9, align 4, !tbaa !83
  %75 = mul i32 4, %74
  %76 = load i32, ptr %10, align 4, !tbaa !83
  %77 = add i32 %75, %76
  %78 = zext i32 %77 to i64
  %79 = getelementptr inbounds nuw i8, ptr %73, i64 %78
  store i8 %72, ptr %79, align 1, !tbaa !87
  br label %80

80:                                               ; preds = %63
  %81 = load i32, ptr %10, align 4, !tbaa !83
  %82 = add nsw i32 %81, 1
  store i32 %82, ptr %10, align 4, !tbaa !83
  br label %59

83:                                               ; preds = %62
  br label %84

84:                                               ; preds = %83
  %85 = load i32, ptr %9, align 4, !tbaa !83
  %86 = add i32 %85, 1
  store i32 %86, ptr %9, align 4, !tbaa !83
  br label %50

87:                                               ; preds = %57
  %88 = load ptr, ptr %4, align 8, !tbaa !12
  %89 = getelementptr inbounds nuw %struct.dt_imageio_jpeg_t, ptr %88, i32 0, i32 0
  %90 = load i32, ptr %89, align 8, !tbaa !67
  %91 = mul nsw i32 4, %90
  %92 = load ptr, ptr %8, align 8, !tbaa !82
  %93 = sext i32 %91 to i64
  %94 = getelementptr inbounds i8, ptr %92, i64 %93
  store ptr %94, ptr %8, align 8, !tbaa !82
  br label %30

95:                                               ; preds = %30
  %96 = getelementptr inbounds [1 x ptr], ptr %6, i64 0, i64 0
  %97 = load ptr, ptr %96, align 8, !tbaa !82
  call void @free(ptr noundef %97) #9
  store i32 0, ptr %3, align 4
  store i32 1, ptr %7, align 4
  br label %98

98:                                               ; preds = %95, %46
  call void @llvm.lifetime.end.p0(i64 8, ptr %8) #9
  br label %99

99:                                               ; preds = %98, %27
  call void @llvm.lifetime.end.p0(i64 8, ptr %6) #9
  %100 = load i32, ptr %3, align 4
  ret i32 %100
}

; Function Attrs: nounwind uwtable
define internal i32 @decompress_jsc(ptr noundef %0, ptr noundef %1) #0 {
  %3 = alloca i32, align 4
  %4 = alloca ptr, align 8
  %5 = alloca ptr, align 8
  %6 = alloca ptr, align 8
  %7 = alloca i32, align 4
  store ptr %0, ptr %4, align 8, !tbaa !12
  store ptr %1, ptr %5, align 8, !tbaa !82
  call void @llvm.lifetime.start.p0(i64 8, ptr %6) #9
  %8 = load ptr, ptr %5, align 8, !tbaa !82
  store ptr %8, ptr %6, align 8, !tbaa !82
  br label %9

9:                                                ; preds = %25, %2
  %10 = load ptr, ptr %4, align 8, !tbaa !12
  %11 = getelementptr inbounds nuw %struct.dt_imageio_jpeg_t, ptr %10, i32 0, i32 4
  %12 = getelementptr inbounds nuw %struct.jpeg_decompress_struct, ptr %11, i32 0, i32 34
  %13 = load i32, ptr %12, align 8, !tbaa !84
  %14 = load ptr, ptr %4, align 8, !tbaa !12
  %15 = getelementptr inbounds nuw %struct.dt_imageio_jpeg_t, ptr %14, i32 0, i32 4
  %16 = getelementptr inbounds nuw %struct.jpeg_decompress_struct, ptr %15, i32 0, i32 8
  %17 = load i32, ptr %16, align 4, !tbaa !68
  %18 = icmp ult i32 %13, %17
  br i1 %18, label %19, label %33

19:                                               ; preds = %9
  %20 = load ptr, ptr %4, align 8, !tbaa !12
  %21 = getelementptr inbounds nuw %struct.dt_imageio_jpeg_t, ptr %20, i32 0, i32 4
  %22 = call i32 @jpeg_read_scanlines(ptr noundef %21, ptr noundef %6, i32 noundef 1)
  %23 = icmp ne i32 %22, 1
  br i1 %23, label %24, label %25

24:                                               ; preds = %19
  store i32 1, ptr %3, align 4
  store i32 1, ptr %7, align 4
  br label %34

25:                                               ; preds = %19
  %26 = load ptr, ptr %4, align 8, !tbaa !12
  %27 = getelementptr inbounds nuw %struct.dt_imageio_jpeg_t, ptr %26, i32 0, i32 0
  %28 = load i32, ptr %27, align 8, !tbaa !67
  %29 = mul nsw i32 4, %28
  %30 = load ptr, ptr %6, align 8, !tbaa !82
  %31 = sext i32 %29 to i64
  %32 = getelementptr inbounds i8, ptr %30, i64 %31
  store ptr %32, ptr %6, align 8, !tbaa !82
  br label %9

33:                                               ; preds = %9
  store i32 0, ptr %3, align 4
  store i32 1, ptr %7, align 4
  br label %34

34:                                               ; preds = %33, %24
  call void @llvm.lifetime.end.p0(i64 8, ptr %6) #9
  %35 = load i32, ptr %3, align 4
  ret i32 %35
}

; Function Attrs: nounwind uwtable
define i32 @dt_imageio_jpeg_decompress(ptr noundef %0, ptr noundef %1) #0 {
  %3 = alloca i32, align 4
  %4 = alloca ptr, align 8
  %5 = alloca ptr, align 8
  %6 = alloca %struct.dt_imageio_jpeg_error_mgr, align 8
  %7 = alloca i32, align 4
  %8 = alloca i32, align 4
  store ptr %0, ptr %4, align 8, !tbaa !12
  store ptr %1, ptr %5, align 8, !tbaa !82
  call void @llvm.lifetime.start.p0(i64 368, ptr %6) #9
  %9 = getelementptr inbounds nuw %struct.dt_imageio_jpeg_error_mgr, ptr %6, i32 0, i32 0
  %10 = call ptr @jpeg_std_error(ptr noundef %9)
  %11 = load ptr, ptr %4, align 8, !tbaa !12
  %12 = getelementptr inbounds nuw %struct.dt_imageio_jpeg_t, ptr %11, i32 0, i32 4
  %13 = getelementptr inbounds nuw %struct.jpeg_decompress_struct, ptr %12, i32 0, i32 0
  store ptr %10, ptr %13, align 8, !tbaa !59
  %14 = getelementptr inbounds nuw %struct.dt_imageio_jpeg_error_mgr, ptr %6, i32 0, i32 0
  %15 = getelementptr inbounds nuw %struct.jpeg_error_mgr, ptr %14, i32 0, i32 0
  store ptr @dt_imageio_jpeg_error_exit, ptr %15, align 8, !tbaa !60
  %16 = getelementptr inbounds nuw %struct.dt_imageio_jpeg_error_mgr, ptr %6, i32 0, i32 1
  %17 = getelementptr inbounds [1 x %struct.__jmp_buf_tag], ptr %16, i64 0, i64 0
  %18 = call i32 @_setjmp(ptr noundef %17) #10
  %19 = icmp ne i32 %18, 0
  br i1 %19, label %20, label %23

20:                                               ; preds = %2
  %21 = load ptr, ptr %4, align 8, !tbaa !12
  %22 = getelementptr inbounds nuw %struct.dt_imageio_jpeg_t, ptr %21, i32 0, i32 4
  call void @jpeg_destroy_decompress(ptr noundef %22)
  store i32 1, ptr %3, align 4
  store i32 1, ptr %7, align 4
  br label %94

23:                                               ; preds = %2
  call void @llvm.lifetime.start.p0(i64 4, ptr %8) #9
  store i32 1, ptr %8, align 4, !tbaa !83
  %24 = getelementptr inbounds nuw %struct.dt_imageio_jpeg_error_mgr, ptr %6, i32 0, i32 1
  %25 = getelementptr inbounds [1 x %struct.__jmp_buf_tag], ptr %24, i64 0, i64 0
  %26 = call i32 @_setjmp(ptr noundef %25) #10
  %27 = icmp ne i32 %26, 0
  br i1 %27, label %28, label %51

28:                                               ; preds = %23
  %29 = load ptr, ptr %4, align 8, !tbaa !12
  %30 = getelementptr inbounds nuw %struct.dt_imageio_jpeg_t, ptr %29, i32 0, i32 4
  %31 = getelementptr inbounds nuw %struct.jpeg_decompress_struct, ptr %30, i32 0, i32 11
  %32 = load i32, ptr %31, align 8, !tbaa !64
  %33 = icmp eq i32 %32, 7
  br i1 %33, label %34, label %47

34:                                               ; preds = %28
  %35 = load ptr, ptr %4, align 8, !tbaa !12
  %36 = getelementptr inbounds nuw %struct.dt_imageio_jpeg_t, ptr %35, i32 0, i32 4
  %37 = getelementptr inbounds nuw %struct.jpeg_decompress_struct, ptr %36, i32 0, i32 29
  %38 = load i32, ptr %37, align 8, !tbaa !65
  %39 = icmp eq i32 %38, 4
  br i1 %39, label %40, label %47

40:                                               ; preds = %34
  %41 = load ptr, ptr %4, align 8, !tbaa !12
  %42 = getelementptr inbounds nuw %struct.dt_imageio_jpeg_t, ptr %41, i32 0, i32 4
  %43 = getelementptr inbounds nuw %struct.jpeg_decompress_struct, ptr %42, i32 0, i32 29
  store i32 3, ptr %43, align 8, !tbaa !65
  %44 = load ptr, ptr %4, align 8, !tbaa !12
  %45 = getelementptr inbounds nuw %struct.dt_imageio_jpeg_t, ptr %44, i32 0, i32 4
  %46 = getelementptr inbounds nuw %struct.jpeg_decompress_struct, ptr %45, i32 0, i32 11
  store i32 2, ptr %46, align 8, !tbaa !64
  store i32 0, ptr %8, align 4, !tbaa !83
  br label %50

47:                                               ; preds = %34, %28
  %48 = load ptr, ptr %4, align 8, !tbaa !12
  %49 = getelementptr inbounds nuw %struct.dt_imageio_jpeg_t, ptr %48, i32 0, i32 4
  call void @jpeg_destroy_decompress(ptr noundef %49)
  store i32 1, ptr %3, align 4
  store i32 1, ptr %7, align 4
  br label %93

50:                                               ; preds = %40
  br label %51

51:                                               ; preds = %50, %23
  %52 = load ptr, ptr %4, align 8, !tbaa !12
  %53 = getelementptr inbounds nuw %struct.dt_imageio_jpeg_t, ptr %52, i32 0, i32 4
  %54 = call i32 @jpeg_start_decompress(ptr noundef %53)
  %55 = getelementptr inbounds nuw %struct.dt_imageio_jpeg_error_mgr, ptr %6, i32 0, i32 1
  %56 = getelementptr inbounds [1 x %struct.__jmp_buf_tag], ptr %55, i64 0, i64 0
  %57 = call i32 @_setjmp(ptr noundef %56) #10
  %58 = icmp ne i32 %57, 0
  br i1 %58, label %59, label %62

59:                                               ; preds = %51
  %60 = load ptr, ptr %4, align 8, !tbaa !12
  %61 = getelementptr inbounds nuw %struct.dt_imageio_jpeg_t, ptr %60, i32 0, i32 4
  call void @jpeg_destroy_decompress(ptr noundef %61)
  store i32 1, ptr %3, align 4
  store i32 1, ptr %7, align 4
  br label %93

62:                                               ; preds = %51
  %63 = load i32, ptr %8, align 4, !tbaa !83
  %64 = icmp ne i32 %63, 0
  br i1 %64, label %65, label %72

65:                                               ; preds = %62
  %66 = load ptr, ptr %4, align 8, !tbaa !12
  %67 = load ptr, ptr %5, align 8, !tbaa !82
  %68 = call i32 @decompress_jsc(ptr noundef %66, ptr noundef %67)
  %69 = icmp ne i32 %68, 0
  br i1 %69, label %70, label %71

70:                                               ; preds = %65
  store i32 1, ptr %3, align 4
  store i32 1, ptr %7, align 4
  br label %93

71:                                               ; preds = %65
  br label %79

72:                                               ; preds = %62
  %73 = load ptr, ptr %4, align 8, !tbaa !12
  %74 = load ptr, ptr %5, align 8, !tbaa !82
  %75 = call i32 @decompress_plain(ptr noundef %73, ptr noundef %74)
  %76 = icmp ne i32 %75, 0
  br i1 %76, label %77, label %78

77:                                               ; preds = %72
  store i32 1, ptr %3, align 4
  store i32 1, ptr %7, align 4
  br label %93

78:                                               ; preds = %72
  br label %79

79:                                               ; preds = %78, %71
  %80 = getelementptr inbounds nuw %struct.dt_imageio_jpeg_error_mgr, ptr %6, i32 0, i32 1
  %81 = getelementptr inbounds [1 x %struct.__jmp_buf_tag], ptr %80, i64 0, i64 0
  %82 = call i32 @_setjmp(ptr noundef %81) #10
  %83 = icmp ne i32 %82, 0
  br i1 %83, label %84, label %87

84:                                               ; preds = %79
  %85 = load ptr, ptr %4, align 8, !tbaa !12
  %86 = getelementptr inbounds nuw %struct.dt_imageio_jpeg_t, ptr %85, i32 0, i32 4
  call void @jpeg_destroy_decompress(ptr noundef %86)
  store i32 1, ptr %3, align 4
  store i32 1, ptr %7, align 4
  br label %93

87:                                               ; preds = %79
  %88 = load ptr, ptr %4, align 8, !tbaa !12
  %89 = getelementptr inbounds nuw %struct.dt_imageio_jpeg_t, ptr %88, i32 0, i32 4
  %90 = call i32 @jpeg_finish_decompress(ptr noundef %89)
  %91 = load ptr, ptr %4, align 8, !tbaa !12
  %92 = getelementptr inbounds nuw %struct.dt_imageio_jpeg_t, ptr %91, i32 0, i32 4
  call void @jpeg_destroy_decompress(ptr noundef %92)
  store i32 0, ptr %3, align 4
  store i32 1, ptr %7, align 4
  br label %93

93:                                               ; preds = %87, %84, %77, %70, %59, %47
  call void @llvm.lifetime.end.p0(i64 4, ptr %8) #9
  br label %94

94:                                               ; preds = %93, %20
  call void @llvm.lifetime.end.p0(i64 368, ptr %6) #9
  %95 = load i32, ptr %3, align 4
  ret i32 %95
}