; Function Attrs: nounwind uwtable
define range(i32 0, 2) i32 @dt_imageio_jpeg_decompress(ptr noundef initializes((104, 112)) %0, ptr noundef %1) local_unnamed_addr #0 {
  %3 = alloca [1 x ptr], align 8
  %4 = alloca ptr, align 8
  %5 = alloca %struct.dt_imageio_jpeg_error_mgr, align 8
  call void @llvm.lifetime.start.p0(i64 368, ptr nonnull %5) #14
  %6 = call ptr @jpeg_std_error(ptr noundef nonnull %5) #14
  %7 = getelementptr inbounds nuw i8, ptr %0, i64 104
  store ptr %6, ptr %7, align 8, !tbaa !55
  store ptr @dt_imageio_jpeg_error_exit, ptr %5, align 8, !tbaa !56
  %8 = getelementptr inbounds nuw i8, ptr %5, i64 168
  %9 = call i32 @_setjmp(ptr noundef nonnull %8) #15
  %.not = icmp eq i32 %9, 0
  br i1 %.not, label %11, label %10

10:                                               ; preds = %2
  call void @jpeg_destroy_decompress(ptr noundef nonnull %7) #14
  br label %88

11:                                               ; preds = %2
  %12 = call i32 @_setjmp(ptr noundef nonnull %8) #15
  %.not18.not = icmp eq i32 %12, 0
  br i1 %.not18.not, label %23, label %13

13:                                               ; preds = %11
  %14 = getelementptr inbounds nuw i8, ptr %0, i64 168
  %15 = load i32, ptr %14, align 8, !tbaa !60
  %16 = icmp eq i32 %15, 7
  br i1 %16, label %17, label %22

17:                                               ; preds = %13
  %18 = getelementptr inbounds nuw i8, ptr %0, i64 248
  %19 = load i32, ptr %18, align 8, !tbaa !61
  %20 = icmp eq i32 %19, 4
  br i1 %20, label %21, label %22

21:                                               ; preds = %17
  store i32 3, ptr %18, align 8, !tbaa !61
  store i32 2, ptr %14, align 8, !tbaa !60
  br label %23

22:                                               ; preds = %17, %13
  call void @jpeg_destroy_decompress(ptr noundef nonnull %7) #14
  br label %88

23:                                               ; preds = %21, %11
  %24 = call i32 @jpeg_start_decompress(ptr noundef nonnull %7) #14
  %25 = call i32 @_setjmp(ptr noundef nonnull %8) #15
  %.not19 = icmp eq i32 %25, 0
  br i1 %.not19, label %27, label %26

26:                                               ; preds = %23
  call void @jpeg_destroy_decompress(ptr noundef nonnull %7) #14
  br label %88

27:                                               ; preds = %23
  br i1 %.not18.not, label %28, label %44

28:                                               ; preds = %27
  call void @llvm.lifetime.start.p0(i64 8, ptr nonnull %4) #14
  %29 = getelementptr inbounds nuw i8, ptr %0, i64 272
  %30 = getelementptr inbounds nuw i8, ptr %0, i64 156
  store ptr %1, ptr %4, align 8, !tbaa !72
  %31 = load i32, ptr %29, align 8, !tbaa !73
  %32 = load i32, ptr %30, align 4, !tbaa !64
  %33 = icmp ult i32 %31, %32
  br i1 %33, label %.lr.ph.i, label %decompress_jsc.exit.thread

.lr.ph.i:                                         ; preds = %28, %35
  %34 = call i32 @jpeg_read_scanlines(ptr noundef nonnull %7, ptr noundef nonnull %4, i32 noundef 1) #14
  %.not.i = icmp eq i32 %34, 1
  br i1 %.not.i, label %35, label %decompress_jsc.exit

35:                                               ; preds = %.lr.ph.i
  %36 = load i32, ptr %0, align 8, !tbaa !63
  %37 = shl nsw i32 %36, 2
  %38 = load ptr, ptr %4, align 8, !tbaa !72
  %39 = sext i32 %37 to i64
  %40 = getelementptr inbounds i8, ptr %38, i64 %39
  store ptr %40, ptr %4, align 8, !tbaa !72
  %41 = load i32, ptr %29, align 8, !tbaa !73
  %42 = load i32, ptr %30, align 4, !tbaa !64
  %43 = icmp ult i32 %41, %42
  br i1 %43, label %.lr.ph.i, label %decompress_jsc.exit.thread

decompress_jsc.exit.thread:                       ; preds = %35, %28
  call void @llvm.lifetime.end.p0(i64 8, ptr nonnull %4) #14
  br label %83

decompress_jsc.exit:                              ; preds = %.lr.ph.i
  call void @llvm.lifetime.end.p0(i64 8, ptr nonnull %4) #14
  br label %88

44:                                               ; preds = %27
  call void @llvm.lifetime.start.p0(i64 8, ptr nonnull %3) #14
  %45 = getelementptr inbounds nuw i8, ptr %0, i64 240
  %46 = load i32, ptr %45, align 8, !tbaa !74
  %47 = zext i32 %46 to i64
  %48 = getelementptr inbounds nuw i8, ptr %0, i64 160
  %49 = load i32, ptr %48, align 8, !tbaa !75
  %50 = sext i32 %49 to i64
  %51 = mul nsw i64 %50, %47
  %52 = call ptr @dt_alloc_aligned(i64 noundef %51) #14
  store ptr %52, ptr %3, align 8, !tbaa !72
  %.not.i24 = icmp eq ptr %52, null
  br i1 %.not.i24, label %decompress_plain.exit.thread, label %.preheader23.i

decompress_plain.exit.thread:                     ; preds = %44
  call void @llvm.lifetime.end.p0(i64 8, ptr nonnull %3) #14
  br label %88

.preheader23.i:                                   ; preds = %44
  %53 = getelementptr inbounds nuw i8, ptr %0, i64 272
  %54 = getelementptr inbounds nuw i8, ptr %0, i64 156
  %55 = load i32, ptr %53, align 8, !tbaa !73
  %56 = load i32, ptr %54, align 4, !tbaa !64
  %57 = icmp ult i32 %55, %56
  br i1 %57, label %.lr.ph.i25, label %decompress_plain.exit.thread30

.lr.ph.i25:                                       ; preds = %.preheader23.i
  %58 = getelementptr inbounds nuw i8, ptr %0, i64 152
  br label %59

59:                                               ; preds = %._crit_edge.i, %.lr.ph.i25
  %.01926.i = phi ptr [ %1, %.lr.ph.i25 ], [ %69, %._crit_edge.i ]
  %60 = call i32 @jpeg_read_scanlines(ptr noundef nonnull %7, ptr noundef nonnull %3, i32 noundef 1) #14
  %.not21.i = icmp eq i32 %60, 1
  br i1 %.not21.i, label %.preheader22.i, label %decompress_plain.exit

.preheader22.i:                                   ; preds = %59
  %61 = load i32, ptr %58, align 8, !tbaa !62
  %.not28.i = icmp eq i32 %61, 0
  br i1 %.not28.i, label %._crit_edge.i, label %.preheader.lr.ph.i

.preheader.lr.ph.i:                               ; preds = %.preheader22.i
  %62 = load ptr, ptr %3, align 8, !tbaa !72
  br label %.preheader.i

.preheader.i:                                     ; preds = %73, %.preheader.lr.ph.i
  %indvars.iv30.i = phi i64 [ 0, %.preheader.lr.ph.i ], [ %indvars.iv.next31.i, %73 ]
  %63 = mul nuw nsw i64 %indvars.iv30.i, 3
  %64 = shl nuw nsw i64 %indvars.iv30.i, 2
  %65 = and i64 %64, 4294967292
  %invariant.gep.i = getelementptr inbounds nuw i8, ptr %.01926.i, i64 %65
  br label %77

._crit_edge.i:                                    ; preds = %73, %.preheader22.i
  %66 = load i32, ptr %0, align 8, !tbaa !63
  %67 = shl nsw i32 %66, 2
  %68 = sext i32 %67 to i64
  %69 = getelementptr inbounds i8, ptr %.01926.i, i64 %68
  %70 = load i32, ptr %53, align 8, !tbaa !73
  %71 = load i32, ptr %54, align 4, !tbaa !64
  %72 = icmp ult i32 %70, %71
  br i1 %72, label %59, label %._crit_edge27.loopexit.i

73:                                               ; preds = %77
  %indvars.iv.next31.i = add nuw nsw i64 %indvars.iv30.i, 1
  %74 = load i32, ptr %58, align 8, !tbaa !62
  %75 = zext i32 %74 to i64
  %76 = icmp samesign ult i64 %indvars.iv.next31.i, %75
  br i1 %76, label %.preheader.i, label %._crit_edge.i

77:                                               ; preds = %77, %.preheader.i
  %indvars.iv.i = phi i64 [ 0, %.preheader.i ], [ %indvars.iv.next.i, %77 ]
  %78 = add nuw nsw i64 %indvars.iv.i, %63
  %79 = and i64 %78, 4294967295
  %80 = getelementptr inbounds nuw i8, ptr %62, i64 %79
  %81 = load i8, ptr %80, align 1, !tbaa !76
  %gep.i = getelementptr inbounds nuw i8, ptr %invariant.gep.i, i64 %indvars.iv.i
  store i8 %81, ptr %gep.i, align 1, !tbaa !76
  %indvars.iv.next.i = add nuw nsw i64 %indvars.iv.i, 1
  %exitcond.not.i = icmp eq i64 %indvars.iv.next.i, 3
  br i1 %exitcond.not.i, label %73, label %77

._crit_edge27.loopexit.i:                         ; preds = %._crit_edge.i
  %.pre.i = load ptr, ptr %3, align 8, !tbaa !72
  br label %decompress_plain.exit.thread30

decompress_plain.exit.thread30:                   ; preds = %._crit_edge27.loopexit.i, %.preheader23.i
  %.sink.i.ph = phi ptr [ %52, %.preheader23.i ], [ %.pre.i, %._crit_edge27.loopexit.i ]
  call void @free(ptr noundef %.sink.i.ph) #14
  call void @llvm.lifetime.end.p0(i64 8, ptr nonnull %3) #14
  br label %83

decompress_plain.exit:                            ; preds = %59
  %82 = load ptr, ptr %3, align 8, !tbaa !72
  call void @free(ptr noundef %82) #14
  call void @llvm.lifetime.end.p0(i64 8, ptr nonnull %3) #14
  br label %88

83:                                               ; preds = %decompress_plain.exit.thread30, %decompress_jsc.exit.thread
  %84 = call i32 @_setjmp(ptr noundef nonnull %8) #15
  %.not23 = icmp eq i32 %84, 0
  br i1 %.not23, label %86, label %85

85:                                               ; preds = %83
  call void @jpeg_destroy_decompress(ptr noundef nonnull %7) #14
  br label %88

86:                                               ; preds = %83
  %87 = call i32 @jpeg_finish_decompress(ptr noundef nonnull %7) #14
  call void @jpeg_destroy_decompress(ptr noundef nonnull %7) #14
  br label %88

88:                                               ; preds = %decompress_plain.exit, %decompress_plain.exit.thread, %decompress_jsc.exit, %22, %26, %85, %86, %10
  %.017 = phi i32 [ 1, %10 ], [ 1, %26 ], [ 1, %85 ], [ 0, %86 ], [ 1, %22 ], [ 1, %decompress_jsc.exit ], [ 1, %decompress_plain.exit ], [ 1, %decompress_plain.exit.thread ]
  call void @llvm.lifetime.end.p0(i64 368, ptr nonnull %5) #14
  ret i32 %.017
}